target datalayout = "e-m:e-p270:32:32-p271:32:32-p272:64:64-i64:64-i128:128-f80:128-n8:16:32:64-S128"
target triple = "x86_64-pc-linux-gnu"

%struct.subframe_stats_t = type { [65535 x %struct.pair_t], i32, i32, i32, double, double, double, double, double }
%struct.pair_t = type { i32, i32 }
%struct.analysis_options = type { i32, i32 }

@all_ = internal global %struct.subframe_stats_t zeroinitializer, align 8

; Function Attrs: nounwind sspstrong uwtable
define internal void @init_stats(ptr noundef %0) #0 {
  %2 = alloca ptr, align 8
  store ptr %0, ptr %2, align 8, !tbaa !9
  %3 = load ptr, ptr %2, align 8, !tbaa !9
  %4 = getelementptr inbounds nuw %struct.subframe_stats_t, ptr %3, i32 0, i32 1
  store i32 -1, ptr %4, align 8, !tbaa !11
  %5 = load ptr, ptr %2, align 8, !tbaa !9
  %6 = getelementptr inbounds nuw %struct.subframe_stats_t, ptr %5, i32 0, i32 2
  store i32 0, ptr %6, align 4, !tbaa !14
  %7 = load ptr, ptr %2, align 8, !tbaa !9
  %8 = getelementptr inbounds nuw %struct.subframe_stats_t, ptr %7, i32 0, i32 3
  store i32 0, ptr %8, align 8, !tbaa !15
  %9 = load ptr, ptr %2, align 8, !tbaa !9
  %10 = getelementptr inbounds nuw %struct.subframe_stats_t, ptr %9, i32 0, i32 4
  store double 0.000000e+00, ptr %10, align 8, !tbaa !16
  %11 = load ptr, ptr %2, align 8, !tbaa !9
  %12 = getelementptr inbounds nuw %struct.subframe_stats_t, ptr %11, i32 0, i32 5
  store double 0.000000e+00, ptr %12, align 8, !tbaa !17
  ret void
}

; Function Attrs: nounwind sspstrong uwtable
define dso_local void @flac__analyze_init(i64 %0) #0 {
  %2 = alloca %struct.analysis_options, align 4
  store i64 %0, ptr %2, align 4
  %3 = getelementptr inbounds nuw %struct.analysis_options, ptr %2, i32 0, i32 1
  %4 = load i32, ptr %3, align 4, !tbaa !4
  %5 = icmp ne i32 %4, 0
  br i1 %5, label %6, label %7

6:                                                ; preds = %1
  call void @init_stats(ptr noundef @all_)
  br label %7

7:                                                ; preds = %6, %1
  ret void
}