; Function Attrs: mustprogress nofree norecurse nosync nounwind sspstrong willreturn memory(write, argmem: none, inaccessiblemem: none) uwtable
define dso_local void @flac__analyze_init(i64 %0) local_unnamed_addr #0 {
  %.not = icmp ult i64 %0, 4294967296
  br i1 %.not, label %3, label %2

2:                                                ; preds = %1
  store i32 -1, ptr getelementptr inbounds nuw (i8, ptr @all_, i64 524280), align 8, !tbaa !4
  store i32 0, ptr getelementptr inbounds nuw (i8, ptr @all_, i64 524284), align 4, !tbaa !10
  store i32 0, ptr getelementptr inbounds nuw (i8, ptr @all_, i64 524288), align 8, !tbaa !11
  tail call void @llvm.memset.p0.i64(ptr noundef nonnull align 8 dereferenceable(16) getelementptr inbounds nuw (i8, ptr @all_, i64 524296), i8 0, i64 16, i1 false)
  br label %3

3:                                                ; preds = %2, %1
  ret void
}